target datalayout = "e-m:e-p270:32:32-p271:32:32-p272:64:64-i64:64-i128:128-f80:128-n8:16:32:64-S128"
target triple = "x86_64-pc-linux-gnu"

@eac3_frame_expstr_index_tab = internal global [3 x [4 x [4 x [4 x [4 x [4 x i8]]]]]] zeroinitializer, align 16
@ff_eac3_frm_expstr = external constant [32 x [6 x i8]], align 16

; Function Attrs: cold nounwind optsize uwtable
define internal void @eac3_exponent_init() #2 {
  %1 = alloca i32, align 4
  call void @llvm.lifetime.start.p0(i64 4, ptr %1) #7
  call void @llvm.memset.p0.i64(ptr align 16 @eac3_frame_expstr_index_tab, i8 -1, i64 3072, i1 false)
  store i32 0, ptr %1, align 4, !tbaa !29
  br label %2

2:                                                ; preds = %52, %0
  %3 = load i32, ptr %1, align 4, !tbaa !29
  %4 = icmp slt i32 %3, 32
  br i1 %4, label %5, label %55

5:                                                ; preds = %2
  %6 = load i32, ptr %1, align 4, !tbaa !29
  %7 = trunc i32 %6 to i8
  %8 = load i32, ptr %1, align 4, !tbaa !29
  %9 = sext i32 %8 to i64
  %10 = getelementptr inbounds [32 x [6 x i8]], ptr @ff_eac3_frm_expstr, i64 0, i64 %9
  %11 = getelementptr inbounds [6 x i8], ptr %10, i64 0, i64 0
  %12 = load i8, ptr %11, align 2, !tbaa !31
  %13 = zext i8 %12 to i32
  %14 = sub nsw i32 %13, 1
  %15 = sext i32 %14 to i64
  %16 = getelementptr inbounds [3 x [4 x [4 x [4 x [4 x [4 x i8]]]]]], ptr @eac3_frame_expstr_index_tab, i64 0, i64 %15
  %17 = load i32, ptr %1, align 4, !tbaa !29
  %18 = sext i32 %17 to i64
  %19 = getelementptr inbounds [32 x [6 x i8]], ptr @ff_eac3_frm_expstr, i64 0, i64 %18
  %20 = getelementptr inbounds [6 x i8], ptr %19, i64 0, i64 1
  %21 = load i8, ptr %20, align 1, !tbaa !31
  %22 = zext i8 %21 to i64
  %23 = getelementptr inbounds nuw [4 x [4 x [4 x [4 x [4 x i8]]]]], ptr %16, i64 0, i64 %22
  %24 = load i32, ptr %1, align 4, !tbaa !29
  %25 = sext i32 %24 to i64
  %26 = getelementptr inbounds [32 x [6 x i8]], ptr @ff_eac3_frm_expstr, i64 0, i64 %25
  %27 = getelementptr inbounds [6 x i8], ptr %26, i64 0, i64 2
  %28 = load i8, ptr %27, align 2, !tbaa !31
  %29 = zext i8 %28 to i64
  %30 = getelementptr inbounds nuw [4 x [4 x [4 x [4 x i8]]]], ptr %23, i64 0, i64 %29
  %31 = load i32, ptr %1, align 4, !tbaa !29
  %32 = sext i32 %31 to i64
  %33 = getelementptr inbounds [32 x [6 x i8]], ptr @ff_eac3_frm_expstr, i64 0, i64 %32
  %34 = getelementptr inbounds [6 x i8], ptr %33, i64 0, i64 3
  %35 = load i8, ptr %34, align 1, !tbaa !31
  %36 = zext i8 %35 to i64
  %37 = getelementptr inbounds nuw [4 x [4 x [4 x i8]]], ptr %30, i64 0, i64 %36
  %38 = load i32, ptr %1, align 4, !tbaa !29
  %39 = sext i32 %38 to i64
  %40 = getelementptr inbounds [32 x [6 x i8]], ptr @ff_eac3_frm_expstr, i64 0, i64 %39
  %41 = getelementptr inbounds [6 x i8], ptr %40, i64 0, i64 4
  %42 = load i8, ptr %41, align 2, !tbaa !31
  %43 = zext i8 %42 to i64
  %44 = getelementptr inbounds nuw [4 x [4 x i8]], ptr %37, i64 0, i64 %43
  %45 = load i32, ptr %1, align 4, !tbaa !29
  %46 = sext i32 %45 to i64
  %47 = getelementptr inbounds [32 x [6 x i8]], ptr @ff_eac3_frm_expstr, i64 0, i64 %46
  %48 = getelementptr inbounds [6 x i8], ptr %47, i64 0, i64 5
  %49 = load i8, ptr %48, align 1, !tbaa !31
  %50 = zext i8 %49 to i64
  %51 = getelementptr inbounds nuw [4 x i8], ptr %44, i64 0, i64 %50
  store i8 %7, ptr %51, align 1, !tbaa !31
  br label %52

52:                                               ; preds = %5
  %53 = load i32, ptr %1, align 4, !tbaa !29
  %54 = add nsw i32 %53, 1
  store i32 %54, ptr %1, align 4, !tbaa !29
  br label %2, !llvm.loop !100

55:                                               ; preds = %2
  call void @llvm.lifetime.end.p0(i64 4, ptr %1) #7
  ret void
}