; Function Attrs: cold nofree norecurse nosync nounwind optsize memory(write, argmem: none, inaccessiblemem: none) uwtable
define internal void @eac3_exponent_init() #6 {
  tail call void @llvm.memset.p0.i64(ptr noundef nonnull align 16 dereferenceable(3072) @eac3_frame_expstr_index_tab, i8 -1, i64 3072, i1 false)
  br label %1

1:                                                ; preds = %0, %1
  %indvars.iv = phi i64 [ 0, %0 ], [ %indvars.iv.next, %1 ]
  %2 = trunc i64 %indvars.iv to i8
  %3 = getelementptr inbounds nuw [32 x [6 x i8]], ptr @ff_eac3_frm_expstr, i64 0, i64 %indvars.iv
  %4 = load i8, ptr %3, align 2, !tbaa !28
  %5 = zext i8 %4 to i64
  %6 = add nsw i64 %5, -1
  %7 = getelementptr inbounds nuw i8, ptr %3, i64 1
  %8 = load i8, ptr %7, align 1, !tbaa !28
  %9 = zext i8 %8 to i64
  %10 = getelementptr inbounds nuw i8, ptr %3, i64 2
  %11 = load i8, ptr %10, align 2, !tbaa !28
  %12 = zext i8 %11 to i64
  %13 = getelementptr inbounds nuw i8, ptr %3, i64 3
  %14 = load i8, ptr %13, align 1, !tbaa !28
  %15 = zext i8 %14 to i64
  %16 = getelementptr inbounds nuw i8, ptr %3, i64 4
  %17 = load i8, ptr %16, align 2, !tbaa !28
  %18 = zext i8 %17 to i64
  %19 = getelementptr inbounds nuw i8, ptr %3, i64 5
  %20 = load i8, ptr %19, align 1, !tbaa !28
  %21 = zext i8 %20 to i64
  %22 = getelementptr inbounds [3 x [4 x [4 x [4 x [4 x [4 x i8]]]]]], ptr @eac3_frame_expstr_index_tab, i64 0, i64 %6, i64 %9, i64 %12, i64 %15, i64 %18, i64 %21
  store i8 %2, ptr %22, align 1, !tbaa !28
  %indvars.iv.next = add nuw nsw i64 %indvars.iv, 1
  %exitcond.not = icmp eq i64 %indvars.iv.next, 32
  br i1 %exitcond.not, label %23, label %1, !llvm.loop !97

23:                                               ; preds = %1
  ret void
}